; Function Attrs: nofree norecurse nosync nounwind memory(read, inaccessiblemem: none) uwtable
define i32 @Gia_ManCountChoiceNodes(ptr noundef readonly captures(none) %0) local_unnamed_addr #4 {
  %2 = getelementptr inbounds nuw i8, ptr %0, i64 192
  %3 = load ptr, ptr %2, align 8, !tbaa !49
  %4 = icmp eq ptr %3, null
  br i1 %4, label %.critedge, label %5

5:                                                ; preds = %1
  %6 = getelementptr inbounds nuw i8, ptr %0, i64 200
  %7 = load ptr, ptr %6, align 8, !tbaa !54
  %8 = icmp eq ptr %7, null
  br i1 %8, label %.critedge, label %.preheader

.preheader:                                       ; preds = %5
  %9 = getelementptr inbounds nuw i8, ptr %0, i64 24
  %10 = load i32, ptr %9, align 8, !tbaa !12
  %11 = icmp sgt i32 %10, 0
  br i1 %11, label %.lr.ph, label %.critedge

.lr.ph:                                           ; preds = %.preheader
  %12 = getelementptr i8, ptr %0, i64 32
  %.val = load ptr, ptr %12, align 8, !tbaa !36
  %.not = icmp eq ptr %.val, null
  br i1 %.not, label %.critedge, label %.lr.ph.split.preheader

.lr.ph.split.preheader:                           ; preds = %.lr.ph
  %wide.trip.count = zext nneg i32 %10 to i64
  br label %.lr.ph.split

.lr.ph.split:                                     ; preds = %.lr.ph.split.preheader, %Gia_ObjIsHead.exit
  %indvars.iv = phi i64 [ 0, %.lr.ph.split.preheader ], [ %indvars.iv.next, %Gia_ObjIsHead.exit ]
  %.014 = phi i32 [ 0, %.lr.ph.split.preheader ], [ %23, %Gia_ObjIsHead.exit ]
  %13 = getelementptr inbounds nuw %struct.Gia_Rpr_t_, ptr %3, i64 %indvars.iv
  %14 = load i32, ptr %13, align 4
  %15 = and i32 %14, 268435455
  %16 = icmp eq i32 %15, 268435455
  br i1 %16, label %17, label %Gia_ObjIsHead.exit

17:                                               ; preds = %.lr.ph.split
  %18 = getelementptr inbounds nuw i32, ptr %7, i64 %indvars.iv
  %19 = load i32, ptr %18, align 4, !tbaa !32
  %20 = icmp sgt i32 %19, 0
  %21 = zext i1 %20 to i32
  br label %Gia_ObjIsHead.exit

Gia_ObjIsHead.exit:                               ; preds = %.lr.ph.split, %17
  %22 = phi i32 [ 0, %.lr.ph.split ], [ %21, %17 ]
  %23 = add nuw nsw i32 %22, %.014
  %indvars.iv.next = add nuw nsw i64 %indvars.iv, 1
  %exitcond.not = icmp eq i64 %indvars.iv.next, %wide.trip.count
  br i1 %exitcond.not, label %.critedge, label %.lr.ph.split, !llvm.loop !167

.critedge:                                        ; preds = %Gia_ObjIsHead.exit, %.lr.ph, %.preheader, %1, %5
  %.012 = phi i32 [ 0, %5 ], [ 0, %1 ], [ 0, %.preheader ], [ 0, %.lr.ph ], [ %23, %Gia_ObjIsHead.exit ]
  ret i32 %.012
}